target datalayout = "e-m:e-p270:32:32-p271:32:32-p272:64:64-i64:64-i128:128-f80:128-n8:16:32:64-S128"
target triple = "x86_64-pc-linux-gnu"

%struct.mbedtls_ssl_context = type { ptr, i32, i32, i32, i32, i32, ptr, ptr, ptr, ptr, ptr, ptr, ptr, ptr, ptr, ptr, ptr, ptr, ptr, ptr, ptr, ptr, ptr, ptr, ptr, ptr, ptr, ptr, ptr, ptr, ptr, ptr, ptr, i32, i64, i64, i16, i64, i64, i64, i64, i32, i32, i8, i8, i32, i8, ptr, ptr, ptr, ptr, ptr, ptr, ptr, i32, i64, i64, [8 x i8], i16, ptr, ptr, ptr, i64, i32, i64, [12 x i8], [12 x i8], [32 x i8], i8, i8, ptr, ptr, %union.mbedtls_ssl_user_data_t }
%union.mbedtls_ssl_user_data_t = type { i64 }
%struct.mbedtls_ssl_config = type { i32, i32, i8, i8, i8, i8, i8, i8, i8, i8, i8, i8, i16, i8, i8, i8, ptr, i32, ptr, ptr, ptr, ptr, ptr, ptr, ptr, ptr, ptr, ptr, ptr, ptr, ptr, ptr, ptr, ptr, ptr, ptr, ptr, i64, ptr, ptr, ptr, ptr, ptr, ptr, ptr, ptr, %struct.mbedtls_mpi, %struct.mbedtls_mpi, ptr, i64, ptr, i64, ptr, i32, i32, i32, i32, [8 x i8], i32, i32, %union.mbedtls_ssl_user_data_t, ptr, ptr }
%struct.mbedtls_mpi = type { ptr, i16, i16 }
%struct.mbedtls_ssl_handshake_params = type { i8, i8, i8, i8, i8, i32, i8, i8, i8, i8, ptr, ptr, ptr, ptr, ptr, i8, i8, i8, i8, i16, i16, [20 x i16], ptr, ptr, %struct.mbedtls_dhm_context, %struct.mbedtls_ecdh_context, i16, i64, i32, i8, [1024 x i8], i64, ptr, ptr, i64, i16, ptr, ptr, ptr, ptr, %struct.anon, ptr, i16, i8, i32, i32, i32, ptr, ptr, ptr, i32, ptr, [8 x i8], i8, [32 x i8], i8, i16, %struct.mbedtls_md_context_t, %struct.mbedtls_md_context_t, i16, i8, %union.anon.1, [64 x i8], [1076 x i8], i64, i32, i32, i8, ptr, ptr, %union.anon.4, %struct.mbedtls_ssl_tls13_handshake_secrets, ptr, i64, ptr }
%struct.mbedtls_dhm_context = type { %struct.mbedtls_mpi, %struct.mbedtls_mpi, %struct.mbedtls_mpi, %struct.mbedtls_mpi, %struct.mbedtls_mpi, %struct.mbedtls_mpi, %struct.mbedtls_mpi, %struct.mbedtls_mpi, %struct.mbedtls_mpi, %struct.mbedtls_mpi }
%struct.mbedtls_ecdh_context = type { i8, i32, i32, %union.anon }
%union.anon = type { %struct.mbedtls_ecdh_context_mbed }
%struct.mbedtls_ecdh_context_mbed = type { %struct.mbedtls_ecp_group, %struct.mbedtls_mpi, %struct.mbedtls_ecp_point, %struct.mbedtls_ecp_point, %struct.mbedtls_mpi }
%struct.mbedtls_ecp_group = type { i32, %struct.mbedtls_mpi, %struct.mbedtls_mpi, %struct.mbedtls_mpi, %struct.mbedtls_ecp_point, %struct.mbedtls_mpi, i64, i64, i32, ptr, ptr, ptr, ptr, ptr, i64 }
%struct.mbedtls_ecp_point = type { %struct.mbedtls_mpi, %struct.mbedtls_mpi, %struct.mbedtls_mpi }
%struct.anon = type { i64, i8, [4 x %struct.mbedtls_ssl_hs_buffer], %struct.anon.0 }
%struct.mbedtls_ssl_hs_buffer = type { i8, ptr, i64 }
%struct.anon.0 = type { ptr, i64, i32 }
%struct.mbedtls_md_context_t = type { ptr, ptr, ptr }
%union.anon.1 = type { %struct.anon.2 }
%struct.anon.2 = type { i8, [64 x i8], i64 }
%union.anon.4 = type { [64 x i8] }
%struct.mbedtls_ssl_tls13_handshake_secrets = type { [64 x i8], [64 x i8] }

@.str = private unnamed_addr constant [124 x i8] c"generated/home/dtcxzyw/WorkSpace/Projects/compilers/llvm-opt-benchmark/bench/lief/bench_build/mbed_src/library/ssl_client.c\00", align 1
@.str.21 = private unnamed_addr constant [36 x i8] c"client hello, adding alpn extension\00", align 1

; Function Attrs: inlinehint nounwind uwtable
define internal void @mbedtls_ssl_tls13_set_hs_sent_ext_mask(ptr noundef %0, i32 noundef %1) #3 {
  %3 = alloca ptr, align 8
  %4 = alloca i32, align 4
  store ptr %0, ptr %3, align 8, !tbaa !3
  store i32 %1, ptr %4, align 4, !tbaa !8
  %5 = load i32, ptr %4, align 4, !tbaa !8
  %6 = call i32 @mbedtls_ssl_get_extension_mask(i32 noundef %5)
  %7 = load ptr, ptr %3, align 8, !tbaa !3
  %8 = getelementptr inbounds nuw %struct.mbedtls_ssl_context, ptr %7, i32 0, i32 16
  %9 = load ptr, ptr %8, align 8, !tbaa !34
  %10 = getelementptr inbounds nuw %struct.mbedtls_ssl_handshake_params, ptr %9, i32 0, i32 65
  %11 = load i32, ptr %10, align 8, !tbaa !48
  %12 = or i32 %11, %6
  store i32 %12, ptr %10, align 8, !tbaa !48
  ret void
}

; Function Attrs: alwaysinline nounwind uwtable
define internal void @mbedtls_put_unaligned_uint16(ptr noundef %0, i16 noundef zeroext %1) #6 {
  %3 = alloca ptr, align 8
  %4 = alloca i16, align 2
  store ptr %0, ptr %3, align 8, !tbaa !74
  store i16 %1, ptr %4, align 2, !tbaa !71
  %5 = load ptr, ptr %3, align 8, !tbaa !74
  call void @llvm.memcpy.p0.p0.i64(ptr align 1 %5, ptr align 2 %4, i64 2, i1 false)
  ret void
}

; Function Attrs: inlinehint nounwind uwtable
define internal i32 @mbedtls_ssl_chk_buf_ptr(ptr noundef %0, ptr noundef %1, i64 noundef %2) #3 {
  %4 = alloca ptr, align 8
  %5 = alloca ptr, align 8
  %6 = alloca i64, align 8
  store ptr %0, ptr %4, align 8, !tbaa !10
  store ptr %1, ptr %5, align 8, !tbaa !10
  store i64 %2, ptr %6, align 8, !tbaa !12
  %7 = load ptr, ptr %4, align 8, !tbaa !10
  %8 = load ptr, ptr %5, align 8, !tbaa !10
  %9 = icmp ugt ptr %7, %8
  br i1 %9, label %18, label %10

10:                                               ; preds = %3
  %11 = load i64, ptr %6, align 8, !tbaa !12
  %12 = load ptr, ptr %5, align 8, !tbaa !10
  %13 = load ptr, ptr %4, align 8, !tbaa !10
  %14 = ptrtoint ptr %12 to i64
  %15 = ptrtoint ptr %13 to i64
  %16 = sub i64 %14, %15
  %17 = icmp ugt i64 %11, %16
  br label %18

18:                                               ; preds = %10, %3
  %19 = phi i1 [ true, %3 ], [ %17, %10 ]
  %20 = zext i1 %19 to i32
  ret i32 %20
}

; Function Attrs: nounwind uwtable
define internal i32 @ssl_write_alpn_ext(ptr noundef %0, ptr noundef %1, ptr noundef %2, ptr noundef %3) #0 {
  %5 = alloca i32, align 4
  %6 = alloca ptr, align 8
  %7 = alloca ptr, align 8
  %8 = alloca ptr, align 8
  %9 = alloca ptr, align 8
  %10 = alloca ptr, align 8
  %11 = alloca i32, align 4
  %12 = alloca ptr, align 8
  %13 = alloca i64, align 8
  store ptr %0, ptr %6, align 8, !tbaa !3
  store ptr %1, ptr %7, align 8, !tbaa !10
  store ptr %2, ptr %8, align 8, !tbaa !10
  store ptr %3, ptr %9, align 8, !tbaa !68
  call void @llvm.lifetime.start.p0(i64 8, ptr %10) #9
  %14 = load ptr, ptr %7, align 8, !tbaa !10
  store ptr %14, ptr %10, align 8, !tbaa !10
  %15 = load ptr, ptr %9, align 8, !tbaa !68
  store i64 0, ptr %15, align 8, !tbaa !12
  %16 = load ptr, ptr %6, align 8, !tbaa !3
  %17 = getelementptr inbounds nuw %struct.mbedtls_ssl_context, ptr %16, i32 0, i32 0
  %18 = load ptr, ptr %17, align 8, !tbaa !14
  %19 = getelementptr inbounds nuw %struct.mbedtls_ssl_config, ptr %18, i32 0, i32 52
  %20 = load ptr, ptr %19, align 8, !tbaa !82
  %21 = icmp eq ptr %20, null
  br i1 %21, label %22, label %23

22:                                               ; preds = %4
  store i32 0, ptr %5, align 4
  store i32 1, ptr %11, align 4
  br label %104

23:                                               ; preds = %4
  %24 = load ptr, ptr %6, align 8, !tbaa !3
  call void (ptr, i32, ptr, i32, ptr, ...) @mbedtls_debug_print_msg(ptr noundef %24, i32 noundef 3, ptr noundef @.str, i32 noundef 127, ptr noundef @.str.21)
  br label %25

25:                                               ; preds = %23
  %26 = load ptr, ptr %10, align 8, !tbaa !10
  %27 = load ptr, ptr %8, align 8, !tbaa !10
  %28 = call i32 @mbedtls_ssl_chk_buf_ptr(ptr noundef %26, ptr noundef %27, i64 noundef 6)
  %29 = icmp ne i32 %28, 0
  br i1 %29, label %30, label %31

30:                                               ; preds = %25
  store i32 -27136, ptr %5, align 4
  store i32 1, ptr %11, align 4
  br label %104

31:                                               ; preds = %25
  br label %32

32:                                               ; preds = %31
  br label %33

33:                                               ; preds = %32
  %34 = load ptr, ptr %10, align 8, !tbaa !10
  %35 = getelementptr inbounds i8, ptr %34, i64 0
  call void @mbedtls_put_unaligned_uint16(ptr noundef %35, i16 noundef zeroext 4096)
  %36 = load ptr, ptr %10, align 8, !tbaa !10
  %37 = getelementptr inbounds i8, ptr %36, i64 6
  store ptr %37, ptr %10, align 8, !tbaa !10
  call void @llvm.lifetime.start.p0(i64 8, ptr %12) #9
  %38 = load ptr, ptr %6, align 8, !tbaa !3
  %39 = getelementptr inbounds nuw %struct.mbedtls_ssl_context, ptr %38, i32 0, i32 0
  %40 = load ptr, ptr %39, align 8, !tbaa !14
  %41 = getelementptr inbounds nuw %struct.mbedtls_ssl_config, ptr %40, i32 0, i32 52
  %42 = load ptr, ptr %41, align 8, !tbaa !82
  store ptr %42, ptr %12, align 8, !tbaa !83
  br label %43

43:                                               ; preds = %77, %33
  %44 = load ptr, ptr %12, align 8, !tbaa !83
  %45 = load ptr, ptr %44, align 8, !tbaa !10
  %46 = icmp ne ptr %45, null
  br i1 %46, label %48, label %47

47:                                               ; preds = %43
  store i32 4, ptr %11, align 4
  br label %80

48:                                               ; preds = %43
  call void @llvm.lifetime.start.p0(i64 8, ptr %13) #9
  %49 = load ptr, ptr %12, align 8, !tbaa !83
  %50 = load ptr, ptr %49, align 8, !tbaa !10
  %51 = call i64 @strlen(ptr noundef %50) #10
  store i64 %51, ptr %13, align 8, !tbaa !12
  br label %52

52:                                               ; preds = %48
  %53 = load ptr, ptr %10, align 8, !tbaa !10
  %54 = load ptr, ptr %8, align 8, !tbaa !10
  %55 = load i64, ptr %13, align 8, !tbaa !12
  %56 = add i64 1, %55
  %57 = call i32 @mbedtls_ssl_chk_buf_ptr(ptr noundef %53, ptr noundef %54, i64 noundef %56)
  %58 = icmp ne i32 %57, 0
  br i1 %58, label %59, label %60

59:                                               ; preds = %52
  store i32 -27136, ptr %5, align 4
  store i32 1, ptr %11, align 4
  br label %74

60:                                               ; preds = %52
  br label %61

61:                                               ; preds = %60
  br label %62

62:                                               ; preds = %61
  %63 = load i64, ptr %13, align 8, !tbaa !12
  %64 = trunc i64 %63 to i8
  %65 = load ptr, ptr %10, align 8, !tbaa !10
  %66 = getelementptr inbounds nuw i8, ptr %65, i32 1
  store ptr %66, ptr %10, align 8, !tbaa !10
  store i8 %64, ptr %65, align 1, !tbaa !70
  %67 = load ptr, ptr %10, align 8, !tbaa !10
  %68 = load ptr, ptr %12, align 8, !tbaa !83
  %69 = load ptr, ptr %68, align 8, !tbaa !10
  %70 = load i64, ptr %13, align 8, !tbaa !12
  call void @llvm.memcpy.p0.p0.i64(ptr align 1 %67, ptr align 1 %69, i64 %70, i1 false)
  %71 = load i64, ptr %13, align 8, !tbaa !12
  %72 = load ptr, ptr %10, align 8, !tbaa !10
  %73 = getelementptr inbounds nuw i8, ptr %72, i64 %71
  store ptr %73, ptr %10, align 8, !tbaa !10
  store i32 0, ptr %11, align 4
  br label %74

74:                                               ; preds = %62, %59
  call void @llvm.lifetime.end.p0(i64 8, ptr %13) #9
  %75 = load i32, ptr %11, align 4
  switch i32 %75, label %80 [
    i32 0, label %76
  ]

76:                                               ; preds = %74
  br label %77

77:                                               ; preds = %76
  %78 = load ptr, ptr %12, align 8, !tbaa !83
  %79 = getelementptr inbounds nuw ptr, ptr %78, i32 1
  store ptr %79, ptr %12, align 8, !tbaa !83
  br label %43, !llvm.loop !84

80:                                               ; preds = %74, %47
  call void @llvm.lifetime.end.p0(i64 8, ptr %12) #9
  %81 = load i32, ptr %11, align 4
  switch i32 %81, label %104 [
    i32 4, label %82
  ]

82:                                               ; preds = %80
  %83 = load ptr, ptr %10, align 8, !tbaa !10
  %84 = load ptr, ptr %7, align 8, !tbaa !10
  %85 = ptrtoint ptr %83 to i64
  %86 = ptrtoint ptr %84 to i64
  %87 = sub i64 %85, %86
  %88 = load ptr, ptr %9, align 8, !tbaa !68
  store i64 %87, ptr %88, align 8, !tbaa !12
  %89 = load ptr, ptr %7, align 8, !tbaa !10
  %90 = getelementptr inbounds i8, ptr %89, i64 4
  %91 = load ptr, ptr %9, align 8, !tbaa !68
  %92 = load i64, ptr %91, align 8, !tbaa !12
  %93 = sub i64 %92, 6
  %94 = trunc i64 %93 to i16
  %95 = call i16 @llvm.bswap.i16(i16 %94)
  call void @mbedtls_put_unaligned_uint16(ptr noundef %90, i16 noundef zeroext %95)
  %96 = load ptr, ptr %7, align 8, !tbaa !10
  %97 = getelementptr inbounds i8, ptr %96, i64 2
  %98 = load ptr, ptr %9, align 8, !tbaa !68
  %99 = load i64, ptr %98, align 8, !tbaa !12
  %100 = sub i64 %99, 4
  %101 = trunc i64 %100 to i16
  %102 = call i16 @llvm.bswap.i16(i16 %101)
  call void @mbedtls_put_unaligned_uint16(ptr noundef %97, i16 noundef zeroext %102)
  %103 = load ptr, ptr %6, align 8, !tbaa !3
  call void @mbedtls_ssl_tls13_set_hs_sent_ext_mask(ptr noundef %103, i32 noundef 16)
  store i32 0, ptr %5, align 4
  store i32 1, ptr %11, align 4
  br label %104

104:                                              ; preds = %82, %80, %30, %22
  call void @llvm.lifetime.end.p0(i64 8, ptr %10) #9
  %105 = load i32, ptr %5, align 4
  ret i32 %105
}