; Function Attrs: nounwind uwtable
define internal fastcc range(i32 -27136, 1) i32 @ssl_write_alpn_ext(ptr noundef %0, ptr noundef %1, ptr noundef %2, ptr noundef nonnull captures(none) initializes((0, 8)) %3) unnamed_addr #0 {
  store i64 0, ptr %3, align 8, !tbaa !60
  %5 = load ptr, ptr %0, align 8, !tbaa !42
  %6 = getelementptr inbounds nuw i8, ptr %5, i64 328
  %7 = load ptr, ptr %6, align 8, !tbaa !74
  %8 = icmp eq ptr %7, null
  br i1 %8, label %.loopexit, label %9

9:                                                ; preds = %4
  tail call void (ptr, i32, ptr, i32, ptr, ...) @mbedtls_debug_print_msg(ptr noundef nonnull %0, i32 noundef 3, ptr noundef nonnull @.str, i32 noundef 127, ptr noundef nonnull @.str.21) #7
  %10 = icmp ule ptr %1, %2
  %11 = ptrtoint ptr %2 to i64
  %12 = ptrtoint ptr %1 to i64
  %13 = sub i64 %11, %12
  %14 = icmp ugt i64 %13, 5
  %narrow.i.not = and i1 %10, %14
  br i1 %narrow.i.not, label %15, label %.loopexit

15:                                               ; preds = %9
  store i16 4096, ptr %1, align 1
  %16 = getelementptr inbounds nuw i8, ptr %1, i64 6
  %17 = load ptr, ptr %0, align 8, !tbaa !42
  %18 = getelementptr inbounds nuw i8, ptr %17, i64 328
  %19 = load ptr, ptr %18, align 8, !tbaa !74
  %20 = load ptr, ptr %19, align 8, !tbaa !59
  %.not4052 = icmp eq ptr %20, null
  br i1 %.not4052, label %._crit_edge, label %.lr.ph

.lr.ph:                                           ; preds = %15, %28
  %21 = phi ptr [ %34, %28 ], [ %20, %15 ]
  %.03354 = phi ptr [ %33, %28 ], [ %19, %15 ]
  %.03653 = phi ptr [ %32, %28 ], [ %16, %15 ]
  %22 = tail call i64 @strlen(ptr noundef nonnull dereferenceable(1) %21) #8
  %23 = add i64 %22, 1
  %24 = icmp ule ptr %.03653, %2
  %25 = ptrtoint ptr %.03653 to i64
  %26 = sub i64 %11, %25
  %27 = icmp ule i64 %23, %26
  %narrow.i42.not = and i1 %24, %27
  br i1 %narrow.i42.not, label %28, label %.loopexit

28:                                               ; preds = %.lr.ph
  %29 = trunc i64 %22 to i8
  %30 = getelementptr inbounds nuw i8, ptr %.03653, i64 1
  store i8 %29, ptr %.03653, align 1, !tbaa !61
  %31 = load ptr, ptr %.03354, align 8, !tbaa !59
  tail call void @llvm.memcpy.p0.p0.i64(ptr nonnull align 1 %30, ptr align 1 %31, i64 %22, i1 false)
  %32 = getelementptr inbounds nuw i8, ptr %30, i64 %22
  %33 = getelementptr inbounds nuw i8, ptr %.03354, i64 8
  %34 = load ptr, ptr %33, align 8, !tbaa !59
  %.not40 = icmp eq ptr %34, null
  br i1 %.not40, label %._crit_edge, label %.lr.ph, !llvm.loop !75

._crit_edge:                                      ; preds = %28, %15
  %.036.lcssa = phi ptr [ %16, %15 ], [ %32, %28 ]
  %35 = ptrtoint ptr %.036.lcssa to i64
  %36 = sub i64 %35, %12
  store i64 %36, ptr %3, align 8, !tbaa !60
  %37 = getelementptr inbounds nuw i8, ptr %1, i64 4
  %38 = trunc i64 %36 to i16
  %39 = add i16 %38, -6
  %40 = tail call i16 @llvm.bswap.i16(i16 %39)
  store i16 %40, ptr %37, align 1
  %41 = getelementptr inbounds nuw i8, ptr %1, i64 2
  %42 = load i64, ptr %3, align 8, !tbaa !60
  %43 = trunc i64 %42 to i16
  %44 = add i16 %43, -4
  %45 = tail call i16 @llvm.bswap.i16(i16 %44)
  store i16 %45, ptr %41, align 1
  %46 = tail call i32 @mbedtls_ssl_get_extension_mask(i32 noundef 16) #7
  %47 = getelementptr inbounds nuw i8, ptr %0, i64 112
  %48 = load ptr, ptr %47, align 8, !tbaa !16
  %49 = getelementptr inbounds nuw i8, ptr %48, i64 3272
  %50 = load i32, ptr %49, align 8, !tbaa !69
  %51 = or i32 %50, %46
  store i32 %51, ptr %49, align 8, !tbaa !69
  br label %.loopexit

.loopexit:                                        ; preds = %.lr.ph, %9, %4, %._crit_edge
  %.0 = phi i32 [ 0, %._crit_edge ], [ 0, %4 ], [ -27136, %9 ], [ -27136, %.lr.ph ]
  ret i32 %.0
}